; Function Attrs: mustprogress nofree norecurse nosync nounwind willreturn memory(read, inaccessiblemem: none) uwtable
define dso_local ptr @AggGetAggref(ptr noundef readonly captures(none) %0) local_unnamed_addr #7 {
  %2 = getelementptr inbounds nuw i8, ptr %0, i64 8
  %3 = load ptr, ptr %2, align 8
  %.not = icmp eq ptr %3, null
  br i1 %.not, label %.thread, label %4

4:                                                ; preds = %1
  %5 = load i32, ptr %3, align 4
  %6 = icmp eq i32 %5, 428
  br i1 %6, label %7, label %.thread

7:                                                ; preds = %4
  %8 = getelementptr inbounds nuw i8, ptr %3, i64 312
  %9 = load ptr, ptr %8, align 8
  %.not14 = icmp eq ptr %9, null
  br i1 %.not14, label %10, label %.thread.sink.split

10:                                               ; preds = %7
  %11 = getelementptr inbounds nuw i8, ptr %3, i64 320
  %12 = load ptr, ptr %11, align 8
  %.not15 = icmp eq ptr %12, null
  br i1 %.not15, label %.thread, label %.thread.sink.split

.thread.sink.split:                               ; preds = %10, %7
  %.sink = phi ptr [ %9, %7 ], [ %12, %10 ]
  %13 = load ptr, ptr %.sink, align 8
  br label %.thread

.thread:                                          ; preds = %.thread.sink.split, %1, %4, %10
  %.1 = phi ptr [ null, %10 ], [ null, %4 ], [ null, %1 ], [ %13, %.thread.sink.split ]
  ret ptr %.1
}